target datalayout = "e-m:e-p270:32:32-p271:32:32-p272:64:64-i64:64-i128:128-f80:128-n8:16:32:64-S128"
target triple = "x86_64-pc-linux-gnu"

@.str = private unnamed_addr constant [5 x i8] c"auto\00", align 1
@.str.4 = private unnamed_addr constant [8 x i8] c"stretch\00", align 1
@.str.9 = private unnamed_addr constant [8 x i8] c"unknown\00", align 1
@.str.44 = private unnamed_addr constant [10 x i8] c"undefined\00", align 1
@.str.55 = private unnamed_addr constant [6 x i8] c"point\00", align 1
@.str.56 = private unnamed_addr constant [8 x i8] c"percent\00", align 1
@.str.57 = private unnamed_addr constant [12 x i8] c"max-content\00", align 1
@.str.58 = private unnamed_addr constant [12 x i8] c"fit-content\00", align 1

; Function Attrs: mustprogress nounwind uwtable
define ptr @YGUnitToString(i32 noundef %0) #0 {
  %2 = alloca ptr, align 8
  %3 = alloca i32, align 4
  store i32 %0, ptr %3, align 4, !tbaa !38
  %4 = load i32, ptr %3, align 4, !tbaa !38
  switch i32 %4, label %12 [
    i32 0, label %5
    i32 1, label %6
    i32 2, label %7
    i32 3, label %8
    i32 4, label %9
    i32 5, label %10
    i32 6, label %11
  ]

5:                                                ; preds = %1
  store ptr @.str.44, ptr %2, align 8
  br label %13

6:                                                ; preds = %1
  store ptr @.str.55, ptr %2, align 8
  br label %13

7:                                                ; preds = %1
  store ptr @.str.56, ptr %2, align 8
  br label %13

8:                                                ; preds = %1
  store ptr @.str, ptr %2, align 8
  br label %13

9:                                                ; preds = %1
  store ptr @.str.57, ptr %2, align 8
  br label %13

10:                                               ; preds = %1
  store ptr @.str.58, ptr %2, align 8
  br label %13

11:                                               ; preds = %1
  store ptr @.str.4, ptr %2, align 8
  br label %13

12:                                               ; preds = %1
  store ptr @.str.9, ptr %2, align 8
  br label %13

13:                                               ; preds = %12, %11, %10, %9, %8, %7, %6, %5
  %14 = load ptr, ptr %2, align 8
  ret ptr %14
}